; Function Attrs: mustprogress uwtable
define noundef double @_ZNK8QuantLib15FdmHestonSolver19meanVarianceDeltaAtEdd(ptr noundef nonnull align 8 dereferenceable(208) %this, double noundef %s, double noundef %v) local_unnamed_addr #10 align 2 {
entry:
  %vtable = load ptr, ptr %this, align 8, !tbaa !33
  %vfn = getelementptr inbounds i8, ptr %vtable, i64 24
  %0 = load ptr, ptr %vfn, align 8
  tail call void %0(ptr noundef nonnull align 8 dereferenceable(12) %this)
  %process_ = getelementptr inbounds nuw i8, ptr %this, i64 16
  %call = tail call noundef nonnull align 8 dereferenceable(16) ptr @_ZNK8QuantLib6HandleINS_13HestonProcessEEptEv(ptr noundef nonnull align 8 dereferenceable(16) %process_)
  %1 = load ptr, ptr %call, align 8, !tbaa !114
  %cmp.not.i = icmp eq ptr %1, null
  br i1 %cmp.not.i, label %cond.false.i, label %_ZNK5boost10shared_ptrIN8QuantLib13HestonProcessEEptEv.exit, !prof !53

cond.false.i:                                     ; preds = %entry
  tail call void @_ZN5boost16assertion_failedEPKcS1_S1_l(ptr noundef nonnull @.str.8, ptr noundef nonnull @__PRETTY_FUNCTION__._ZNK5boost10shared_ptrIN8QuantLib13HestonProcessEEptEv, ptr noundef nonnull @.str.9, i64 noundef 784)
  %.pre.i = load ptr, ptr %call, align 8, !tbaa !114
  br label %_ZNK5boost10shared_ptrIN8QuantLib13HestonProcessEEptEv.exit

_ZNK5boost10shared_ptrIN8QuantLib13HestonProcessEEptEv.exit: ; preds = %entry, %cond.false.i
  %2 = phi ptr [ %1, %entry ], [ %.pre.i, %cond.false.i ]
  %rho_.i = getelementptr inbounds nuw i8, ptr %2, i64 208
  %3 = load double, ptr %rho_.i, align 8, !tbaa !121
  %call5 = tail call noundef nonnull align 8 dereferenceable(16) ptr @_ZNK8QuantLib6HandleINS_13HestonProcessEEptEv(ptr noundef nonnull align 8 dereferenceable(16) %process_)
  %4 = load ptr, ptr %call5, align 8, !tbaa !114
  %cmp.not.i4 = icmp eq ptr %4, null
  br i1 %cmp.not.i4, label %cond.false.i5, label %_ZNK5boost10shared_ptrIN8QuantLib13HestonProcessEEptEv.exit7, !prof !53

cond.false.i5:                                    ; preds = %_ZNK5boost10shared_ptrIN8QuantLib13HestonProcessEEptEv.exit
  tail call void @_ZN5boost16assertion_failedEPKcS1_S1_l(ptr noundef nonnull @.str.8, ptr noundef nonnull @__PRETTY_FUNCTION__._ZNK5boost10shared_ptrIN8QuantLib13HestonProcessEEptEv, ptr noundef nonnull @.str.9, i64 noundef 784)
  %.pre.i6 = load ptr, ptr %call5, align 8, !tbaa !114
  br label %_ZNK5boost10shared_ptrIN8QuantLib13HestonProcessEEptEv.exit7

_ZNK5boost10shared_ptrIN8QuantLib13HestonProcessEEptEv.exit7: ; preds = %_ZNK5boost10shared_ptrIN8QuantLib13HestonProcessEEptEv.exit, %cond.false.i5
  %5 = phi ptr [ %4, %_ZNK5boost10shared_ptrIN8QuantLib13HestonProcessEEptEv.exit ], [ %.pre.i6, %cond.false.i5 ]
  %sigma_.i = getelementptr inbounds nuw i8, ptr %5, i64 200
  %6 = load double, ptr %sigma_.i, align 8, !tbaa !137
  %vtable.i = load ptr, ptr %this, align 8, !tbaa !33
  %vfn.i = getelementptr inbounds i8, ptr %vtable.i, i64 24
  %7 = load ptr, ptr %vfn.i, align 8
  tail call void %7(ptr noundef nonnull align 8 dereferenceable(12) %this)
  %solver_.i = getelementptr inbounds nuw i8, ptr %this, i64 192
  %8 = load ptr, ptr %solver_.i, align 8, !tbaa !105
  %cmp.not.i.i = icmp eq ptr %8, null
  br i1 %cmp.not.i.i, label %cond.false.i.i, label %_ZNK8QuantLib15FdmHestonSolver7deltaAtEdd.exit, !prof !53

cond.false.i.i:                                   ; preds = %_ZNK5boost10shared_ptrIN8QuantLib13HestonProcessEEptEv.exit7
  tail call void @_ZN5boost16assertion_failedEPKcS1_S1_l(ptr noundef nonnull @.str.8, ptr noundef nonnull @__PRETTY_FUNCTION__._ZNK5boost10shared_ptrIN8QuantLib13Fdm2DimSolverEEptEv, ptr noundef nonnull @.str.9, i64 noundef 784)
  %.pre.i.i = load ptr, ptr %solver_.i, align 8, !tbaa !105
  br label %_ZNK8QuantLib15FdmHestonSolver7deltaAtEdd.exit

_ZNK8QuantLib15FdmHestonSolver7deltaAtEdd.exit:   ; preds = %_ZNK5boost10shared_ptrIN8QuantLib13HestonProcessEEptEv.exit7, %cond.false.i.i
  %9 = phi ptr [ %8, %_ZNK5boost10shared_ptrIN8QuantLib13HestonProcessEEptEv.exit7 ], [ %.pre.i.i, %cond.false.i.i ]
  %call2.i = tail call double @log(double noundef %s) #27, !tbaa !120
  %call3.i = tail call noundef double @_ZNK8QuantLib13Fdm2DimSolver11derivativeXEdd(ptr noundef nonnull align 8 dereferenceable(296) %9, double noundef %call2.i, double noundef %v)
  %10 = load ptr, ptr %solver_.i, align 8, !tbaa !105
  %cmp.not.i8 = icmp eq ptr %10, null
  br i1 %cmp.not.i8, label %cond.false.i9, label %_ZNK5boost10shared_ptrIN8QuantLib13Fdm2DimSolverEEptEv.exit, !prof !53

cond.false.i9:                                    ; preds = %_ZNK8QuantLib15FdmHestonSolver7deltaAtEdd.exit
  tail call void @_ZN5boost16assertion_failedEPKcS1_S1_l(ptr noundef nonnull @.str.8, ptr noundef nonnull @__PRETTY_FUNCTION__._ZNK5boost10shared_ptrIN8QuantLib13Fdm2DimSolverEEptEv, ptr noundef nonnull @.str.9, i64 noundef 784)
  %.pre.i10 = load ptr, ptr %solver_.i, align 8, !tbaa !105
  br label %_ZNK5boost10shared_ptrIN8QuantLib13Fdm2DimSolverEEptEv.exit

_ZNK5boost10shared_ptrIN8QuantLib13Fdm2DimSolverEEptEv.exit: ; preds = %_ZNK8QuantLib15FdmHestonSolver7deltaAtEdd.exit, %cond.false.i9
  %11 = phi ptr [ %10, %_ZNK8QuantLib15FdmHestonSolver7deltaAtEdd.exit ], [ %.pre.i10, %cond.false.i9 ]
  %div.i = fdiv double %call3.i, %s
  %mul = fmul double %3, %6
  %div = fdiv double %mul, %s
  %call10 = tail call double @log(double noundef %s) #27, !tbaa !120
  %call11 = tail call noundef double @_ZNK8QuantLib13Fdm2DimSolver11derivativeYEdd(ptr noundef nonnull align 8 dereferenceable(296) %11, double noundef %call10, double noundef %v)
  %12 = tail call double @llvm.fmuladd.f64(double %div, double %call11, double %div.i)
  ret double %12
}